target datalayout = "e-m:e-p270:32:32-p271:32:32-p272:64:64-i64:64-i128:128-f80:128-n8:16:32:64-S128"
target triple = "x86_64-pc-linux-gnu"

%class.dtPathQueue = type { [8 x %"struct.dtPathQueue::PathQuery"], i32, i32, i32, ptr }
%"struct.dtPathQueue::PathQuery" = type { i32, [3 x float], [3 x float], i32, i32, ptr, i32, i32, i32, ptr }

; Function Attrs: mustprogress nounwind uwtable
define linkonce_odr noundef i32 @_Z5dtMinIiET_S0_S0_(i32 noundef %0, i32 noundef %1) #0 comdat {
  %3 = alloca i32, align 4
  %4 = alloca i32, align 4
  store i32 %0, ptr %3, align 4
  store i32 %1, ptr %4, align 4
  %5 = load i32, ptr %3, align 4
  %6 = load i32, ptr %4, align 4
  %7 = icmp slt i32 %5, %6
  br i1 %7, label %8, label %10

8:                                                ; preds = %2
  %9 = load i32, ptr %3, align 4
  br label %12

10:                                               ; preds = %2
  %11 = load i32, ptr %4, align 4
  br label %12

12:                                               ; preds = %10, %8
  %13 = phi i32 [ %9, %8 ], [ %11, %10 ]
  ret i32 %13
}

; Function Attrs: mustprogress uwtable
define noundef i32 @_ZN11dtPathQueue13getPathResultEjPjPii(ptr noundef nonnull align 8 dereferenceable(600) %0, i32 noundef %1, ptr noundef %2, ptr noundef %3, i32 noundef %4) #1 align 2 {
  %6 = alloca i32, align 4
  %7 = alloca ptr, align 8
  %8 = alloca i32, align 4
  %9 = alloca ptr, align 8
  %10 = alloca ptr, align 8
  %11 = alloca i32, align 4
  %12 = alloca i32, align 4
  %13 = alloca ptr, align 8
  %14 = alloca i32, align 4
  %15 = alloca i32, align 4
  store ptr %0, ptr %7, align 8
  store i32 %1, ptr %8, align 4
  store ptr %2, ptr %9, align 8
  store ptr %3, ptr %10, align 8
  store i32 %4, ptr %11, align 4
  %16 = load ptr, ptr %7, align 8
  store i32 0, ptr %12, align 4
  br label %17

17:                                               ; preds = %59, %5
  %18 = load i32, ptr %12, align 4
  %19 = icmp slt i32 %18, 8
  br i1 %19, label %20, label %62

20:                                               ; preds = %17
  %21 = getelementptr inbounds %class.dtPathQueue, ptr %16, i32 0, i32 0
  %22 = load i32, ptr %12, align 4
  %23 = sext i32 %22 to i64
  %24 = getelementptr inbounds [8 x %"struct.dtPathQueue::PathQuery"], ptr %21, i64 0, i64 %23
  %25 = getelementptr inbounds %"struct.dtPathQueue::PathQuery", ptr %24, i32 0, i32 0
  %26 = load i32, ptr %25, align 8
  %27 = load i32, ptr %8, align 4
  %28 = icmp eq i32 %26, %27
  br i1 %28, label %29, label %58

29:                                               ; preds = %20
  %30 = getelementptr inbounds %class.dtPathQueue, ptr %16, i32 0, i32 0
  %31 = load i32, ptr %12, align 4
  %32 = sext i32 %31 to i64
  %33 = getelementptr inbounds [8 x %"struct.dtPathQueue::PathQuery"], ptr %30, i64 0, i64 %32
  store ptr %33, ptr %13, align 8
  %34 = load ptr, ptr %13, align 8
  %35 = getelementptr inbounds %"struct.dtPathQueue::PathQuery", ptr %34, i32 0, i32 7
  %36 = load i32, ptr %35, align 4
  %37 = and i32 %36, 16777215
  store i32 %37, ptr %14, align 4
  %38 = load ptr, ptr %13, align 8
  %39 = getelementptr inbounds %"struct.dtPathQueue::PathQuery", ptr %38, i32 0, i32 0
  store i32 0, ptr %39, align 8
  %40 = load ptr, ptr %13, align 8
  %41 = getelementptr inbounds %"struct.dtPathQueue::PathQuery", ptr %40, i32 0, i32 7
  store i32 0, ptr %41, align 4
  %42 = load ptr, ptr %13, align 8
  %43 = getelementptr inbounds %"struct.dtPathQueue::PathQuery", ptr %42, i32 0, i32 6
  %44 = load i32, ptr %43, align 8
  %45 = load i32, ptr %11, align 4
  %46 = call noundef i32 @_Z5dtMinIiET_S0_S0_(i32 noundef %44, i32 noundef %45)
  store i32 %46, ptr %15, align 4
  %47 = load ptr, ptr %9, align 8
  %48 = load ptr, ptr %13, align 8
  %49 = getelementptr inbounds %"struct.dtPathQueue::PathQuery", ptr %48, i32 0, i32 5
  %50 = load ptr, ptr %49, align 8
  %51 = load i32, ptr %15, align 4
  %52 = sext i32 %51 to i64
  %53 = mul i64 4, %52
  call void @llvm.memcpy.p0.p0.i64(ptr align 4 %47, ptr align 4 %50, i64 %53, i1 false)
  %54 = load i32, ptr %15, align 4
  %55 = load ptr, ptr %10, align 8
  store i32 %54, ptr %55, align 4
  %56 = load i32, ptr %14, align 4
  %57 = or i32 %56, 1073741824
  store i32 %57, ptr %6, align 4
  br label %63

58:                                               ; preds = %20
  br label %59

59:                                               ; preds = %58
  %60 = load i32, ptr %12, align 4
  %61 = add nsw i32 %60, 1
  store i32 %61, ptr %12, align 4
  br label %17, !llvm.loop !11

62:                                               ; preds = %17
  store i32 -2147483648, ptr %6, align 4
  br label %63

63:                                               ; preds = %62, %29
  %64 = load i32, ptr %6, align 4
  ret i32 %64
}