; Function Attrs: mustprogress nofree norecurse nosync nounwind memory(readwrite, inaccessiblemem: none) uwtable
define noundef range(i32 1073741824, -2147483647) i32 @_ZN11dtPathQueue13getPathResultEjPjPii(ptr noundef nonnull align 8 captures(none) dereferenceable(600) %0, i32 noundef %1, ptr noundef writeonly captures(none) %2, ptr noundef writeonly captures(none) %3, i32 noundef %4) local_unnamed_addr #8 align 2 {
  br label %7

6:                                                ; preds = %7
  %indvars.iv.next = add nuw nsw i64 %indvars.iv, 1
  %exitcond.not = icmp eq i64 %indvars.iv.next, 8
  br i1 %exitcond.not, label %.loopexit, label %7, !llvm.loop !11

7:                                                ; preds = %5, %6
  %indvars.iv = phi i64 [ 0, %5 ], [ %indvars.iv.next, %6 ]
  %8 = getelementptr inbounds nuw [8 x %"struct.dtPathQueue::PathQuery"], ptr %0, i64 0, i64 %indvars.iv
  %9 = load i32, ptr %8, align 8
  %10 = icmp eq i32 %9, %1
  br i1 %10, label %11, label %6

11:                                               ; preds = %7
  %12 = getelementptr inbounds nuw i8, ptr %8, i64 52
  %13 = load i32, ptr %12, align 4
  %14 = and i32 %13, 16777215
  store i32 0, ptr %8, align 8
  store i32 0, ptr %12, align 4
  %15 = getelementptr inbounds nuw i8, ptr %8, i64 48
  %16 = load i32, ptr %15, align 8
  %17 = tail call noundef i32 @llvm.smin.i32(i32 %16, i32 %4)
  %18 = getelementptr inbounds nuw i8, ptr %8, i64 40
  %19 = load ptr, ptr %18, align 8
  %20 = sext i32 %17 to i64
  %21 = shl nsw i64 %20, 2
  tail call void @llvm.memcpy.p0.p0.i64(ptr align 4 %2, ptr align 4 %19, i64 %21, i1 false)
  store i32 %17, ptr %3, align 4
  %22 = or disjoint i32 %14, 1073741824
  br label %.loopexit

.loopexit:                                        ; preds = %6, %11
  %.0 = phi i32 [ %22, %11 ], [ -2147483648, %6 ]
  ret i32 %.0
}